; Function Attrs: mustprogress nounwind uwtable
define dso_local void @_ZN4Luau7TypeIds5clearEv(ptr noundef nonnull align 8 captures(none) dereferenceable(72) %0) local_unnamed_addr #6 align 2 personality ptr @__gxx_personality_v0 {
  %2 = getelementptr inbounds nuw i8, ptr %0, i64 40
  %3 = load ptr, ptr %2, align 8, !tbaa !21
  %4 = getelementptr inbounds nuw i8, ptr %0, i64 48
  %5 = load ptr, ptr %4, align 8, !tbaa !36
  %.not.i.i = icmp eq ptr %5, %3
  br i1 %.not.i.i, label %_ZNSt6vectorIPKN4Luau4TypeESaIS3_EE5clearEv.exit, label %6

6:                                                ; preds = %1
  store ptr %3, ptr %4, align 8, !tbaa !36
  br label %_ZNSt6vectorIPKN4Luau4TypeESaIS3_EE5clearEv.exit

_ZNSt6vectorIPKN4Luau4TypeESaIS3_EE5clearEv.exit: ; preds = %1, %6
  %7 = getelementptr inbounds nuw i8, ptr %0, i64 16
  %8 = load i64, ptr %7, align 8, !tbaa !43
  %9 = icmp eq i64 %8, 0
  br i1 %9, label %_ZN4Luau12DenseHashMapIPKNS_4TypeEbNS_16DenseHashPointerESt8equal_toIS3_EE5clearEm.exit, label %10

10:                                               ; preds = %_ZNSt6vectorIPKN4Luau4TypeESaIS3_EE5clearEv.exit
  %11 = getelementptr inbounds nuw i8, ptr %0, i64 8
  %12 = load i64, ptr %11, align 8, !tbaa !44
  %13 = icmp ugt i64 %12, 32
  %14 = load ptr, ptr %0, align 8, !tbaa !26
  br i1 %13, label %15, label %16

15:                                               ; preds = %10
  tail call void @_ZdlPv(ptr noundef %14) #32
  tail call void @llvm.memset.p0.i64(ptr noundef nonnull align 8 dereferenceable(40) %0, i8 0, i64 16, i1 false)
  br label %_ZN4Luau6detail16ItemInterfaceMapIPKNS_4TypeEbE4fillEPSt4pairIS4_bEmRKS4_.exit.i.i

16:                                               ; preds = %10
  %.not.i.i.i = icmp eq i64 %12, 0
  br i1 %.not.i.i.i, label %_ZN4Luau6detail16ItemInterfaceMapIPKNS_4TypeEbE4fillEPSt4pairIS4_bEmRKS4_.exit.i.i, label %.lr.ph.preheader.i.i.i

.lr.ph.preheader.i.i.i:                           ; preds = %16
  %17 = getelementptr inbounds nuw i8, ptr %0, i64 24
  %.pre.i.i.i = load ptr, ptr %17, align 8, !tbaa !19
  br label %.lr.ph.i.i.i

.lr.ph.i.i.i:                                     ; preds = %.lr.ph.i.i.i, %.lr.ph.preheader.i.i.i
  %.07.i.i.i = phi i64 [ %20, %.lr.ph.i.i.i ], [ 0, %.lr.ph.preheader.i.i.i ]
  %18 = getelementptr inbounds nuw %"struct.std::pair.344", ptr %14, i64 %.07.i.i.i
  store ptr %.pre.i.i.i, ptr %18, align 8, !tbaa !19
  %19 = getelementptr inbounds nuw i8, ptr %18, i64 8
  store i8 0, ptr %19, align 8, !tbaa !32
  %20 = add nuw nsw i64 %.07.i.i.i, 1
  %exitcond.not.i.i.i = icmp eq i64 %20, %12
  br i1 %exitcond.not.i.i.i, label %_ZN4Luau6detail16ItemInterfaceMapIPKNS_4TypeEbE4fillEPSt4pairIS4_bEmRKS4_.exit.i.i, label %.lr.ph.i.i.i, !llvm.loop !48

_ZN4Luau6detail16ItemInterfaceMapIPKNS_4TypeEbE4fillEPSt4pairIS4_bEmRKS4_.exit.i.i: ; preds = %.lr.ph.i.i.i, %16, %15
  store i64 0, ptr %7, align 8, !tbaa !43
  br label %_ZN4Luau12DenseHashMapIPKNS_4TypeEbNS_16DenseHashPointerESt8equal_toIS3_EE5clearEm.exit

_ZN4Luau12DenseHashMapIPKNS_4TypeEbNS_16DenseHashPointerESt8equal_toIS3_EE5clearEm.exit: ; preds = %_ZNSt6vectorIPKN4Luau4TypeESaIS3_EE5clearEv.exit, %_ZN4Luau6detail16ItemInterfaceMapIPKNS_4TypeEbE4fillEPSt4pairIS4_bEmRKS4_.exit.i.i
  %21 = getelementptr inbounds nuw i8, ptr %0, i64 64
  store i64 0, ptr %21, align 8, !tbaa !37
  ret void
}